target datalayout = "e-m:e-p270:32:32-p271:32:32-p272:64:64-i64:64-i128:128-f80:128-n8:16:32:64-S128"
target triple = "x86_64-pc-linux-gnu"

%struct.settings = type { i64, i32, i32, i32, ptr, i32, i32, i32, ptr, ptr, i32, double, i32, i32, i32, i8, i32, i32, i8, i32, i32, i32, i32, i32, i32, i8, i8, i8, i8, i8, i8, i8, i32, i32, double, double, i32, i32, i8, i32, i8, i8, ptr, i32, i32, i32, i32, double, double, i32, i8, i32, i32, i32, i32, i32, i8, i8, i8, ptr, i32, i32, i32, i32, i32, i32, i32, i32, i32, i32, double, i8, i32, i32, ptr, i32 }

@settings = external global %struct.settings, align 8

; Function Attrs: nounwind uwtable
define internal i64 @item_make_header(i8 noundef zeroext %0, i32 noundef %1, i32 noundef %2, ptr noundef %3, ptr noundef %4) #0 {
  %6 = alloca i8, align 1
  %7 = alloca i32, align 4
  %8 = alloca i32, align 4
  %9 = alloca ptr, align 8
  %10 = alloca ptr, align 8
  store i8 %0, ptr %6, align 1, !tbaa !30
  store i32 %1, ptr %7, align 4, !tbaa !4
  store i32 %2, ptr %8, align 4, !tbaa !4
  store ptr %3, ptr %9, align 8, !tbaa !65
  store ptr %4, ptr %10, align 8, !tbaa !65
  %11 = load i32, ptr %7, align 4, !tbaa !4
  %12 = icmp eq i32 %11, 0
  br i1 %12, label %13, label %15

13:                                               ; preds = %5
  %14 = load ptr, ptr %10, align 8, !tbaa !65
  store i8 0, ptr %14, align 1, !tbaa !30
  br label %17

15:                                               ; preds = %5
  %16 = load ptr, ptr %10, align 8, !tbaa !65
  store i8 4, ptr %16, align 1, !tbaa !30
  br label %17

17:                                               ; preds = %15, %13
  %18 = load i8, ptr %6, align 1, !tbaa !30
  %19 = zext i8 %18 to i64
  %20 = add i64 48, %19
  %21 = load ptr, ptr %10, align 8, !tbaa !65
  %22 = load i8, ptr %21, align 1, !tbaa !30
  %23 = zext i8 %22 to i64
  %24 = add i64 %20, %23
  %25 = load i32, ptr %8, align 4, !tbaa !4
  %26 = sext i32 %25 to i64
  %27 = add i64 %24, %26
  ret i64 %27
}

; Function Attrs: nounwind uwtable
define dso_local zeroext i1 @item_size_ok(i64 noundef %0, i32 noundef %1, i32 noundef %2) #0 {
  %4 = alloca i1, align 1
  %5 = alloca i64, align 8
  %6 = alloca i32, align 4
  %7 = alloca i32, align 4
  %8 = alloca [40 x i8], align 16
  %9 = alloca i8, align 1
  %10 = alloca i32, align 4
  %11 = alloca i64, align 8
  store i64 %0, ptr %5, align 8, !tbaa !10
  store i32 %1, ptr %6, align 4, !tbaa !4
  store i32 %2, ptr %7, align 4, !tbaa !4
  call void @llvm.lifetime.start.p0(i64 40, ptr %8) #9
  call void @llvm.lifetime.start.p0(i64 1, ptr %9) #9
  %12 = load i32, ptr %7, align 4, !tbaa !4
  %13 = icmp slt i32 %12, 2
  br i1 %13, label %14, label %15

14:                                               ; preds = %3
  store i1 false, ptr %4, align 1
  store i32 1, ptr %10, align 4
  br label %32

15:                                               ; preds = %3
  call void @llvm.lifetime.start.p0(i64 8, ptr %11) #9
  %16 = load i64, ptr %5, align 8, !tbaa !10
  %17 = add i64 %16, 1
  %18 = trunc i64 %17 to i8
  %19 = load i32, ptr %6, align 4, !tbaa !4
  %20 = load i32, ptr %7, align 4, !tbaa !4
  %21 = getelementptr inbounds [40 x i8], ptr %8, i64 0, i64 0
  %22 = call i64 @item_make_header(i8 noundef zeroext %18, i32 noundef %19, i32 noundef %20, ptr noundef %21, ptr noundef %9)
  store i64 %22, ptr %11, align 8, !tbaa !10
  %23 = load i8, ptr getelementptr inbounds nuw (%struct.settings, ptr @settings, i32 0, i32 18), align 8, !tbaa !66, !range !26, !noundef !27
  %24 = trunc i8 %23 to i1
  br i1 %24, label %25, label %28

25:                                               ; preds = %15
  %26 = load i64, ptr %11, align 8, !tbaa !10
  %27 = add i64 %26, 8
  store i64 %27, ptr %11, align 8, !tbaa !10
  br label %28

28:                                               ; preds = %25, %15
  %29 = load i64, ptr %11, align 8, !tbaa !10
  %30 = call i32 @slabs_clsid(i64 noundef %29)
  %31 = icmp ne i32 %30, 0
  store i1 %31, ptr %4, align 1
  store i32 1, ptr %10, align 4
  call void @llvm.lifetime.end.p0(i64 8, ptr %11) #9
  br label %32

32:                                               ; preds = %28, %14
  call void @llvm.lifetime.end.p0(i64 1, ptr %9) #9
  call void @llvm.lifetime.end.p0(i64 40, ptr %8) #9
  %33 = load i1, ptr %4, align 1
  ret i1 %33
}