; Function Attrs: nounwind uwtable
define dso_local zeroext i1 @item_size_ok(i64 noundef %0, i32 noundef %1, i32 noundef %2) local_unnamed_addr #0 {
  %4 = icmp slt i32 %2, 2
  br i1 %4, label %19, label %5

5:                                                ; preds = %3
  %6 = add i64 %0, 1
  %7 = icmp eq i32 %1, 0
  %8 = and i64 %6, 255
  %9 = add nuw nsw i64 %8, 48
  %10 = select i1 %7, i64 0, i64 4
  %11 = zext nneg i32 %2 to i64
  %12 = add nuw nsw i64 %9, %11
  %13 = add nuw nsw i64 %12, %10
  %14 = load i8, ptr getelementptr inbounds nuw (i8, ptr @settings, i64 104), align 8, !tbaa !62, !range !24, !noundef !25
  %15 = trunc nuw i8 %14 to i1
  %16 = add nuw nsw i64 %13, 8
  %spec.select = select i1 %15, i64 %16, i64 %13
  %17 = tail call i32 @slabs_clsid(i64 noundef %spec.select) #19
  %18 = icmp ne i32 %17, 0
  br label %19

19:                                               ; preds = %3, %5
  %.06 = phi i1 [ %18, %5 ], [ false, %3 ]
  ret i1 %.06
}